target datalayout = "e-m:e-p270:32:32-p271:32:32-p272:64:64-i64:64-i128:128-f80:128-n8:16:32:64-S128"
target triple = "x86_64-pc-linux-gnu"

; Function Attrs: nounwind uwtable
define dso_local i64 @FSE_compress_usingCTable(ptr noundef %0, i64 noundef %1, ptr noundef %2, i64 noundef %3, ptr noundef %4) #0 {
  %6 = alloca i64, align 8
  %7 = alloca ptr, align 8
  %8 = alloca i64, align 8
  %9 = alloca ptr, align 8
  %10 = alloca i64, align 8
  %11 = alloca ptr, align 8
  %12 = alloca i32, align 4
  store ptr %0, ptr %7, align 8
  store i64 %1, ptr %8, align 8
  store ptr %2, ptr %9, align 8
  store i64 %3, ptr %10, align 8
  store ptr %4, ptr %11, align 8
  %13 = load i64, ptr %8, align 8
  %14 = load i64, ptr %10, align 8
  %15 = load i64, ptr %10, align 8
  %16 = lshr i64 %15, 7
  %17 = add i64 %14, %16
  %18 = add i64 %17, 4
  %19 = add i64 %18, 8
  %20 = icmp uge i64 %13, %19
  %21 = zext i1 %20 to i32
  store i32 %21, ptr %12, align 4
  %22 = load i32, ptr %12, align 4
  %23 = icmp ne i32 %22, 0
  br i1 %23, label %24, label %31

24:                                               ; preds = %5
  %25 = load ptr, ptr %7, align 8
  %26 = load i64, ptr %8, align 8
  %27 = load ptr, ptr %9, align 8
  %28 = load i64, ptr %10, align 8
  %29 = load ptr, ptr %11, align 8
  %30 = call i64 @FSE_compress_usingCTable_generic(ptr noundef %25, i64 noundef %26, ptr noundef %27, i64 noundef %28, ptr noundef %29, i32 noundef 1)
  store i64 %30, ptr %6, align 8
  br label %38

31:                                               ; preds = %5
  %32 = load ptr, ptr %7, align 8
  %33 = load i64, ptr %8, align 8
  %34 = load ptr, ptr %9, align 8
  %35 = load i64, ptr %10, align 8
  %36 = load ptr, ptr %11, align 8
  %37 = call i64 @FSE_compress_usingCTable_generic(ptr noundef %32, i64 noundef %33, ptr noundef %34, i64 noundef %35, ptr noundef %36, i32 noundef 0)
  store i64 %37, ptr %6, align 8
  br label %38

38:                                               ; preds = %31, %24
  %39 = load i64, ptr %6, align 8
  ret i64 %39
}