; Function Attrs: nofree norecurse nosync nounwind memory(write, argmem: readwrite, inaccessiblemem: none) uwtable
define dso_local i64 @FSE_compress_usingCTable(ptr noundef %0, i64 noundef %1, ptr noundef %2, i64 noundef %3, ptr noundef readonly captures(none) %4) local_unnamed_addr #2 {
  %6 = lshr i64 %3, 7
  %7 = add i64 %3, 12
  %8 = add i64 %7, %6
  %.not = icmp uge i64 %1, %8
  %. = zext i1 %.not to i32
  %9 = tail call fastcc i64 @FSE_compress_usingCTable_generic(ptr noundef %0, i64 noundef %1, ptr noundef %2, i64 noundef %3, ptr noundef %4, i32 noundef %.)
  ret i64 %9
}